(dp1
I8204
V\u005ctextcompwordmark{}
p2
sI8211
V\u005ctextendash{}
p3
sI8212
V\u005ctextemdash{}
p4
sI8214
V\u005ctextbardbl{}
p5
sI8216
V\u005ctextquoteleft{}
p6
sI8217
V\u005ctextquoteright{}
p7
sI8218
V\u005cquotesinglbase{}
p8
sI8219
V'
sI8220
V\u005ctextquotedblleft{}
p9
sI8221
V\u005ctextquotedblright{}
p10
sI8222
V\u005cquotedblbase{}
p11
sI8223
V\u005c"{}
p12
sI8224
V\u005ctextdagger{}
p13
sI8225
V\u005ctextdaggerdbl{}
p14
sI8226
V\u005ctextbullet{}
p15
sI8230
V\u005ctextellipsis{}
p16
sI8240
V\u005ctextperthousand{}
p17
sI8241
V\u005ctextpertenthousand{}
p18
sI8249
V\u005cguilsinglleft{}
p19
sI8250
V\u005cguilsinglright{}
p20
sI8251
V\u005ctextreferencemark{}
p21
sI8253
V\u005ctextinterrobang{}
p22
sI8260
V\u005ctextfractionsolidus{}
p23
sI8270
V\u005ctextasteriskcentered{}
p24
sI8274
V\u005ctextdiscount{}
p25
sI92
V\u005c\u005ctextbackslash{}
p26
sI94
V$\u005c\u005cuparrow$
p27
sI95
V\u005c\u005ctextunderscore{}
p28
sI124
V\u005c\u005cvline{}
p29
sI126
V\u005c\u005ctextasciitilde{}"    "~
p30
sI365
V\u005cu{u}
p31
sI160
V~
sI161
V\u005ctextexclamdown{}
p32
sI162
V\u005ctextcent{}
p33
sI163
V\u005ctextsterling{}
p34
sI164
V\u005ctextcurrency{}
p35
sI165
V\u005ctextyen{}
p36
sI166
V\u005ctextbrokenbar{}
p37
sI167
V\u005ctextsection{}
p38
sI168
V\u005ctextasciidieresis{}
p39
sI169
V\u005ctextcopyright{}
p40
sI170
V\u005ctextordfeminine{}
p41
sI171
V\u005cguillemotleft{}
p42
sI172
V\u005ctextlnot{}
p43
sI173
V\u005c\u005c-
p44
sI174
V\u005ctextregistered{}
p45
sI175
V\u005ctextasciimacron{}
p46
sI176
V\u005ctextdegree{}
p47
sI177
V\u005ctextpm{}
p48
sI178
V\u005ctexttwosuperior{}
p49
sI179
V\u005ctextthreesuperior{}
p50
sI180
V\u005ctextasciiacute{}
p51
sI181
V\u005ctextmu{}
p52
sI182
V\u005ctextparagraph{}
p53
sI183
V\u005ctextperiodcentered{}
p54
sI184
V\u005cc\u005c {}
p55
sI185
V\u005ctextonesuperior{}
p56
sI186
V\u005ctextordmasculine{}
p57
sI187
V\u005cguillemotright{}
p58
sI188
V\u005ctextonequarter{}
p59
sI189
V\u005ctextonehalf{}
p60
sI190
V\u005ctextthreequarters{}
p61
sI191
V\u005ctextquestiondown{}
p62
sI192
V\u005c`A{}
p63
sI193
V\u005c'A{}
p64
sI194
V\u005c^A{}
p65
sI195
V\u005c~A{}
p66
sI196
V\u005c"A{}
p67
sI197
V\u005cr A{}
p68
sI198
V\u005cAE{}
p69
sI199
V\u005cc C{}
p70
sI200
V\u005c`E{}
p71
sI201
V\u005c'E{}
p72
sI202
V\u005c^E{}
p73
sI203
V\u005c"E{}
p74
sI204
V\u005c`I{}
p75
sI205
V\u005c'I{}
p76
sI206
V\u005c^I{}
p77
sI207
V\u005c"I{}
p78
sI208
V\u005cDH{}
p79
sI209
V\u005c~N{}
p80
sI210
V\u005c`O{}
p81
sI211
V\u005c'O{}
p82
sI212
V\u005c^O{}
p83
sI213
V\u005c~O{}
p84
sI214
V\u005c"O{}
p85
sI215
V\u005ctexttimes{}
p86
sI216
V\u005cO{}
p87
sI217
V\u005c`U{}
p88
sI218
V\u005c'U{}
p89
sI219
V\u005c^U{}
p90
sI220
V\u005c"U{}
p91
sI221
V\u005c'Y{}
p92
sI222
V\u005cTH{}
p93
sI223
V\u005css{}
p94
sI224
V\u005c`a{}
p95
sI225
V\u005c'a{}
p96
sI226
V\u005c^a{}
p97
sI227
V\u005c~a{}
p98
sI228
V\u005c"a{}
p99
sI229
V\u005cr a{}
p100
sI230
V\u005cae{}
p101
sI231
V\u005cc c{}
p102
sI232
V\u005c`e{}
p103
sI233
V\u005c'e{}
p104
sI234
V\u005c^e{}
p105
sI235
V\u005c"e{}
p106
sI236
V\u005c`\u005ci{}
p107
sI237
V\u005c'\u005ci{}
p108
sI238
V\u005c^\u005ci{}
p109
sI239
V\u005c"\u005ci{}
p110
sI240
V\u005cdh{}
p111
sI241
V\u005c~n{}
p112
sI242
V\u005c`o{}
p113
sI243
V\u005c'o{}
p114
sI244
V\u005c^o{}
p115
sI245
V\u005c~o{}
p116
sI246
V\u005c"o{}
p117
sI247
V\u005ctextdiv{}
p118
sI248
V\u005co{}
p119
sI249
V\u005c`u{}
p120
sI250
V\u005c'u{}
p121
sI251
V\u005c^u{}
p122
sI252
V\u005c"u{}
p123
sI253
V\u005c'y{}
p124
sI254
V\u005cth{}
p125
sI255
V\u005c"y{}
p126
sI258
V\u005cu A{}
p127
sI259
V\u005cu a{}
p128
sI260
V\u005ck A{}
p129
sI261
V\u005ck a{}
p130
sI262
V\u005c'C{}
p131
sI263
V\u005c'c{}
p132
sI268
V\u005cv C{}
p133
sI269
V\u005cv c{}
p134
sI270
V\u005cv D{}
p135
sI271
V\u005cv d{}
p136
sI272
V\u005cDJ{}
p137
sI273
V\u005cdj{}
p138
sI8470
V\u005ctextnumero{}
p139
sI8471
V\u005ctextcircledP{}
p140
sI280
V\u005ck E{}
p141
sI281
V\u005ck e{}
p142
sI282
V\u005cv E{}
p143
sI283
V\u005cv e{}
p144
sI286
V\u005cu G{}
p145
sI287
V\u005cu g{}
p146
sI8480
V\u005ctextservicemark{}
p147
sI8482
V\u005ctexttrademark{}
p148
sI8486
V\u005ctextohm{}
p149
sI8487
V\u005ctextmho{}
p150
sI8494
V\u005ctextestimated{}
p151
sI304
V\u005c.I{}
p152
sI305
V\u005ci{}
p153
sI306
V\u005cIJ{}
p154
sI307
V\u005cij{}
p155
sI313
V\u005c'L{}
p156
sI314
V\u005c'l{}
p157
sI315
V\u005cc{L}
p158
sI316
V\u005cc{l}
p159
sI317
V\u005cv L{}
p160
sI318
V\u005cv l{}
p161
sI319
VL\u005chspace{-0.35em}$\u005c\u005ccdot$
p162
sI320
Vl$\u005ccdot$
p163
sI321
V\u005cL{}
p164
sI322
V\u005cl{}
p165
sI323
V\u005c'N{}
p166
sI324
V\u005c'n{}
p167
sI325
V\u005cc{N}
p168
sI326
V\u005cc{n}
p169
sI327
V\u005cv N{}
p170
sI328
V\u005cv n{}
p171
sI329
V'n
p172
sI330
V\u005cNG{}
p173
sI331
V\u005cng{}
p174
sI332
V\u005c={O}
p175
sI333
V\u005c={o}
p176
sI334
V\u005cu{O}
p177
sI335
V\u005cu{o}
p178
sI336
V\u005cH O{}
p179
sI337
V\u005cH o{}
p180
sI338
V\u005cOE{}
p181
sI339
V\u005coe{}
p182
sI340
V\u005c'R{}
p183
sI341
V\u005c'r{}
p184
sI342
V\u005cc{R}
p185
sI343
V\u005cc{r}
p186
sI344
V\u005cv R{}
p187
sI345
V\u005cv r{}
p188
sI346
V\u005c'S{}
p189
sI347
V\u005c's{}
p190
sI348
V\u005c^{S}
p191
sI349
V\u005c^{s}
p192
sI350
V\u005cc S{}
p193
sI351
V\u005cc s{}
p194
sI352
V\u005cv S{}
p195
sI353
V\u005cv s{}
p196
sI354
V\u005cc T{}
p197
sI355
V\u005cc t{}
p198
sI356
V\u005cv T{}
p199
sI357
V\u005cv t{}
p200
sI360
V\u005c~{U}
p201
sI361
V\u005c~{u}
p202
sI362
V\u005c={U}
p203
sI363
V\u005c={u}
p204
sI364
V\u005cu{U}
p205
sI8594
V\u005ctextrightarrow{}
p206
sI366
V\u005cr U{}
p207
sI367
V\u005cr u{}
p208
sI368
V\u005cH U{}
p209
sI369
V\u005cH u{}
p210
sI370
V\u005ck{U}
p211
sI371
V\u005ck{u}
p212
sI372
V\u005c^{W}
p213
sI373
V\u005c^{w}
p214
sI374
V\u005c^{Y}
p215
sI375
V\u005c^{y}
p216
sI376
V\u005c"Y{}
p217
sI377
V\u005c'Z{}
p218
sI378
V\u005c'z{}
p219
sI379
V\u005c.Z{}
p220
sI380
V\u005c.z{}
p221
sI381
V\u005cv Z{}
p222
sI382
V\u005cv z{}
p223
sI8592
V\u005ctextleftarrow{}
p224
sI8593
V\u005ctextuparrow{}
p225
sI402
V\u005ctextflorin{}
p226
sI8595
V\u005ctextdownarrow{}
p227
sI461
V\u005cv A
p228
sI462
V\u005cv a
p229
sI463
V\u005cv I
p230
sI464
V\u005cv \u005c\u005ci{}
p231
sI465
V\u005cv O
p232
sI466
V\u005cv o
p233
sI467
V\u005cv U
p234
sI468
V\u005cv u
p235
sI486
V\u005cv G
p236
sI487
V\u005cv g
p237
sI488
V\u005cv K
p238
sI489
V\u005cv k
p239
sI490
V\u005ck O
p240
sI491
V\u005ck o
p241
sI497
VDZ
p242
sI498
VDz
p243
sI499
Vdz
p244
sI500
V\u005c'G
p245
sI501
V\u005c`G
p246
sI504
V\u005c`N
p247
sI505
V\u005c`n
p248
sI512
V\u005ctextdoublegrave{A}
p249
sI513
V\u005ctextdoublegrave{A}
p250
sI514
V\u005ctextroundcap{A}
p251
sI515
V\u005ctextroundcap{a}
p252
sI516
V\u005ctextdoublegrave{E}
p253
sI517
V\u005ctextdoublegrave{e}
p254
sI518
V\u005ctextroundcap{A}
p255
sI519
V\u005ctextroundcap{a}
p256
sI520
V\u005ctextdoublegrave{I}
p257
sI521
V\u005ctextdoublegrave{\u005c\u005ci}
p258
sI522
V\u005ctextroundcap{I}
p259
sI523
V\u005ctextroundcap{\u005c\u005ci}
p260
sI524
V\u005ctextdoublegrave{O}
p261
sI525
V\u005ctextdoublegrave{o}
p262
sI526
V\u005ctextroundcap{O}
p263
sI527
V\u005ctextroundcap{o}
p264
sI528
V\u005ctextdoublegrave{R}
p265
sI529
V\u005ctextdoublegrave{r}
p266
sI530
V\u005ctextroundcap{R}
p267
sI531
V\u005ctextroundcap{r}
p268
sI532
V\u005ctextdoublegrave{U}
p269
sI533
V\u005ctextdoublegrave{u}
p270
sI534
V\u005ctextroundcap{U}
p271
sI535
V\u005ctextroundcap{u}
p272
sI536
V\u005ctextcommabelow{S}
p273
sI537
V\u005ctextcommabelow{s}
p274
sI538
V\u005ctextcommabelow{T}
p275
sI539
V\u005ctextcommabelow{t}
p276
sI542
V\u005cv{H}
p277
sI543
V\u005cv{h}
p278
sI550
V\u005c.A
p279
sI551
V\u005c.a
p280
sI552
V\u005cc E
p281
sI553
V\u005cc e
p282
sI556
V\u005cmakeatletter\u005c\u005c@tabacckludge={\u005c\u005c~O}\u005c\u005cmakeatother{}
p283
sI557
V\u005cmakeatletter\u005c\u005c@tabacckludge={\u005c\u005c~o}\u005c\u005cmakeatother{}
p284
sI558
V\u005c.O
p285
sI559
V\u005c.o
p286
sI562
V\u005c=Y
p287
sI563
V\u005c=y
p288
sI570
V/\u005chspace{-0.5em}A
p289
sI571
V/\u005chspace{-0.5em}C
p290
sI572
V/\u005chspace{-0.4em}c
p291
sI573
V-\u005chspace{-0.3em}L
p292
sI574
V-\u005chspace{-0.3em}T
p293
sI603
V\u005ctextepsilon{}
p294
sI643
V\u005ctextesh{}
p295
sI710
V\u005ctextasciicircum{}
p296
sI711
V\u005ctextasciicaron{}
p297
sI728
V\u005ctextasciibreve{}
p298
sI732
V\u005ctextasciitilde{}
p299
sI733
V\u005ctextacutedbl{}
p300
sI9001
V\u005ctextlangle{}
p301
sI9002
V\u005ctextrangle{}
p302
sI8353
V\u005ctextcolonmonetary{}
p303
sI8356
V\u005ctextlira{}
p304
sI8358
V\u005ctextnaira{}
p305
sI8361
V\u005ctextwon{}
p306
sI1024
V\u005c`\u005cCYRE{}
p307
sI1025
V\u005cCYRYO{}
p308
sI1026
V\u005cCYRDJE{}
p309
sI1027
V\u005c`\u005cCYRG{}
p310
sI1028
V\u005cCYRIE{}
p311
sI1029
V\u005cCYRDZE{}
p312
sI1030
V\u005cCYRII{}
p313
sI1031
V\u005cCYRYI{}
p314
sI1032
V\u005cCYRJE{}
p315
sI1033
V\u005cCYRLJE{}
p316
sI1034
V\u005cCYRNJE{}
p317
sI1035
V\u005cCYRTSHE{}
p318
sI1036
V\u005c`\u005cCYRK{}
p319
sI1037
V\u005c`\u005cCYRI{}
p320
sI1038
V\u005cCYRUSHRT{}
p321
sI1039
V\u005cCYRDZHE{}
p322
sI1040
V\u005cCYRA{}
p323
sI1041
V\u005cCYRB{}
p324
sI1042
V\u005cCYRV{}
p325
sI1043
V\u005cCYRG{}
p326
sI1044
V\u005cCYRD{}
p327
sI1045
V\u005cCYRE{}
p328
sI1046
V\u005cCYRZH{}
p329
sI1047
V\u005cCYRZ{}
p330
sI1048
V\u005cCYRI{}
p331
sI1049
V\u005cCYRISHRT{}
p332
sI1050
V\u005cCYRK{}
p333
sI1051
V\u005cCYRL{}
p334
sI1052
V\u005cCYRM{}
p335
sI1053
V\u005cCYRN{}
p336
sI1054
V\u005cCYRO{}
p337
sI1055
V\u005cCYRP{}
p338
sI1056
V\u005cCYRR{}
p339
sI1057
V\u005cCYRS{}
p340
sI1058
V\u005cCYRT{}
p341
sI1059
V\u005cCYRU{}
p342
sI1060
V\u005cCYRF{}
p343
sI1061
V\u005cCYRH{}
p344
sI1062
V\u005cCYRC{}
p345
sI1063
V\u005cCYRCH{}
p346
sI1064
V\u005cCYRSH{}
p347
sI1065
V\u005cCYRSHCH{}
p348
sI1066
V\u005cCYRHRDSN{}
p349
sI1067
V\u005cCYRERY{}
p350
sI1068
V\u005cCYRSFTSN{}
p351
sI1069
V\u005cCYREREV{}
p352
sI1070
V\u005cCYRYU{}
p353
sI1071
V\u005cCYRYA{}
p354
sI1072
V\u005ccyra{}
p355
sI1073
V\u005ccyrb{}
p356
sI1074
V\u005ccyrv{}
p357
sI1075
V\u005ccyrg{}
p358
sI1076
V\u005ccyrd{}
p359
sI1077
V\u005ccyre{}
p360
sI1078
V\u005ccyrzh{}
p361
sI1079
V\u005ccyrz{}
p362
sI1080
V\u005ccyri{}
p363
sI1081
V\u005ccyrishrt{}
p364
sI1082
V\u005ccyrk{}
p365
sI1083
V\u005ccyrl{}
p366
sI1084
V\u005ccyrm{}
p367
sI1085
V\u005ccyrn{}
p368
sI1086
V\u005ccyro{}
p369
sI1087
V\u005ccyrp{}
p370
sI1088
V\u005ccyrr{}
p371
sI1089
V\u005ccyrs{}
p372
sI1090
V\u005ccyrt{}
p373
sI1091
V\u005ccyru{}
p374
sI1092
V\u005ccyrf{}
p375
sI1093
V\u005ccyrh{}
p376
sI1094
V\u005ccyrc{}
p377
sI1095
V\u005ccyrch{}
p378
sI1096
V\u005ccyrsh{}
p379
sI1097
V\u005ccyrshch{}
p380
sI1098
V\u005ccyrhrdsn{}
p381
sI1099
V\u005ccyrery{}
p382
sI1100
V\u005ccyrsftsn{}
p383
sI1101
V\u005ccyrerev{}
p384
sI1102
V\u005ccyryu{}
p385
sI1103
V\u005ccyrya{}
p386
sI1104
V\u005c`\u005ccyre{}
p387
sI1105
V\u005ccyryo{}
p388
sI1106
V\u005ccyrdje{}
p389
sI1107
V\u005c`\u005ccyrg{}
p390
sI1108
V\u005ccyrie{}
p391
sI1109
V\u005ccyrdze{}
p392
sI1110
V\u005ccyrii{}
p393
sI1111
V\u005ccyryi{}
p394
sI1112
V\u005ccyrje{}
p395
sI1113
V\u005ccyrlje{}
p396
sI1114
V\u005ccyrnje{}
p397
sI1115
V\u005ccyrtshe{}
p398
sI1116
V\u005c`\u005ccyrk{}
p399
sI1117
V\u005c`\u005ccyri{}
p400
sI1118
V\u005ccyrushrt{}
p401
sI1119
V\u005ccyrdzhe{}
p402
sI1122
V\u005cCYRYAT{}
p403
sI1123
V\u005ccyryat{}
p404
sI1130
V\u005cCYRBYUS{}
p405
sI1131
V\u005ccyrbyus{}
p406
sI1138
V\u005cCYRFITA{}
p407
sI1139
V\u005ccyrfita{}
p408
sI1140
V\u005cCYRIZH{}
p409
sI1141
V\u005ccyrizh{}
p410
sI1142
V\u005cC\u005cCYRIZH{}
p411
sI1143
V\u005cC\u005ccyrizh{}
p412
sI1164
V\u005cCYRSEMISFTSN{}
p413
sI1165
V\u005ccyrsemisftsn{}
p414
sI1166
V\u005cCYRRTICK{}
p415
sI1167
V\u005ccyrrtick{}
p416
sI1168
V\u005cCYRGUP{}
p417
sI1169
V\u005ccyrgup{}
p418
sI1170
V\u005cCYRGHCRS{}
p419
sI1171
V\u005ccyrghcrs{}
p420
sI1172
V\u005cCYRGHK{}
p421
sI1173
V\u005ccyrghk{}
p422
sI1174
V\u005cCYRZHDSC{}
p423
sI1175
V\u005ccyrzhdsc{}
p424
sI1176
V\u005cCYRZDSC{}
p425
sI1177
V\u005ccyrzdsc{}
p426
sI1178
V\u005cCYRKDSC{}
p427
sI1179
V\u005ccyrkdsc{}
p428
sI1180
V\u005cCYRKVCRS{}
p429
sI1181
V\u005ccyrkvcrs{}
p430
sI1182
V\u005cCYRKHCRS{}
p431
sI1183
V\u005ccyrkhcrs{}
p432
sI1184
V\u005cCYRKBEAK{}
p433
sI1185
V\u005ccyrkbeak{}
p434
sI1186
V\u005cCYRNDSC{}
p435
sI1187
V\u005ccyrndsc{}
p436
sI1188
V\u005cCYRNG{}
p437
sI1189
V\u005ccyrng{}
p438
sI1190
V\u005cCYRPHK{}
p439
sI1191
V\u005ccyrphk{}
p440
sI1192
V\u005cCYRABHHA{}
p441
sI1193
V\u005ccyrabhha{}
p442
sI1194
V\u005cCYRSDSC{}
p443
sI1195
V\u005ccyrsdsc{}
p444
sI1196
V\u005cCYRTDSC{}
p445
sI1197
V\u005ccyrtdsc{}
p446
sI1198
V\u005cCYRY{}
p447
sI1199
V\u005ccyry{}
p448
sI1200
V\u005cCYRYHCRS{}
p449
sI1201
V\u005ccyryhcrs{}
p450
sI1202
V\u005cCYRHDSC{}
p451
sI1203
V\u005ccyrhdsc{}
p452
sI1204
V\u005cCYRTETSE{}
p453
sI1205
V\u005ccyrtetse{}
p454
sI1206
V\u005cCYRCHRDSC{}
p455
sI1207
V\u005ccyrchrdsc{}
p456
sI1208
V\u005cCYRCHVCRS{}
p457
sI1209
V\u005ccyrchvcrs{}
p458
sI1210
V\u005cCYRSHHA{}
p459
sI1211
V\u005ccyrshha{}
p460
sI1212
V\u005cCYRABHCH{}
p461
sI1213
V\u005ccyrabhch{}
p462
sI1214
V\u005cCYRABHCHDSC{}
p463
sI1215
V\u005ccyrabhchdsc{}
p464
sI1216
V\u005cCYRpalochka{}
p465
sI1217
V\u005cU\u005cCYRZH{}
p466
sI1218
V\u005cU\u005ccyrzh{}
p467
sI1219
V\u005cCYRKHK{}
p468
sI1220
V\u005ccyrkhk{}
p469
sI1221
V\u005cCYRLDSC{}
p470
sI1222
V\u005ccyrldsc{}
p471
sI1223
V\u005cCYRNHK{}
p472
sI1224
V\u005ccyrnhk{}
p473
sI1227
V\u005cCYRCHLDSC{}
p474
sI1228
V\u005ccyrchldsc{}
p475
sI1229
V\u005cCYRMDSC{}
p476
sI1230
V\u005ccyrmdsc{}
p477
sI1232
V\u005cU\u005cCYRA{}
p478
sI1233
V\u005cU\u005ccyra{}
p479
sI1234
V\u005c"\u005cCYRA{}
p480
sI1235
V\u005c"\u005ccyra{}
p481
sI1236
V\u005cCYRAE{}
p482
sI1237
V\u005ccyrae{}
p483
sI1238
V\u005cU\u005cCYRE{}
p484
sI1239
V\u005cU\u005ccyre{}
p485
sI1240
V\u005cCYRSCHWA{}
p486
sI1241
V\u005ccyrschwa{}
p487
sI1242
V\u005c"\u005cCYRSCHWA{}
p488
sI1243
V\u005c"\u005ccyrschwa{}
p489
sI1244
V\u005c"\u005cCYRZH{}
p490
sI1245
V\u005c"\u005ccyrzh{}
p491
sI1246
V\u005c"\u005cCYRZ{}
p492
sI1247
V\u005c"\u005ccyrz{}
p493
sI1248
V\u005cCYRABHDZE{}
p494
sI1249
V\u005ccyrabhdze{}
p495
sI1250
V\u005c=\u005cCYRI{}
p496
sI1251
V\u005c=\u005ccyri{}
p497
sI1252
V\u005c"\u005cCYRI{}
p498
sI1253
V\u005c"\u005ccyri{}
p499
sI1254
V\u005c"\u005cCYRO{}
p500
sI1255
V\u005c"\u005ccyro{}
p501
sI1256
V\u005cCYROTLD{}
p502
sI1257
V\u005ccyrotld{}
p503
sI1260
V\u005c"\u005cCYREREV{}
p504
sI1261
V\u005c"\u005ccyrerev{}
p505
sI1262
V\u005c=\u005cCYRU{}
p506
sI1263
V\u005c=\u005ccyru{}
p507
sI1264
V\u005c"\u005cCYRU{}
p508
sI1265
V\u005c"\u005ccyru{}
p509
sI1266
V\u005cH\u005cCYRU{}
p510
sI1267
V\u005cH\u005ccyru{}
p511
sI1268
V\u005c"\u005cCYRCH{}
p512
sI1269
V\u005c"\u005ccyrch{}
p513
sI1270
V\u005cCYRGDSC{}
p514
sI1271
V\u005ccyrgdsc{}
p515
sI1272
V\u005c"\u005cCYRERY{}
p516
sI1273
V\u005c"\u005ccyrery{}
p517
sI1274
V\u005cCYRGDSCHCRS{}
p518
sI1275
V\u005ccyrgdschcrs{}
p519
sI1276
V\u005cCYRHHK{}
p520
sI1277
V\u005ccyrhhk{}
p521
sI1278
V\u005cCYRHHCRS{}
p522
sI1279
V\u005ccyrhhcrs{}
p523
sI8363
V\u005ctextdong{}
p524
sI9250
V\u005ctextblank{}
p525
sI8364
V\u005ctexteuro{}
p526
sI9251
V\u005ctextvisiblespace{}
p527
sI8369
V\u005ctextpeso{}
p528
sI9702
V\u005ctextopenbullet{}
p529
sI9711
V\u005ctextbigcircle{}
p530
sI8451
V\u005ctextcelsius{}
p531
sI3647
V\u005ctextbaht{}
p532
sI9834
V\u005ctextmusicalnote{}
p533
sI8478
V\u005ctextrecipe{}
p534
s.